target datalayout = "e-m:e-p270:32:32-p271:32:32-p272:64:64-i64:64-i128:128-f80:128-n8:16:32:64-S128"
target triple = "x86_64-pc-linux-gnu"

%struct.pg_compress_specification = type { i32, i32, i32, i32, i8, ptr }
%struct.CompressorState = type { ptr, ptr, ptr, ptr, ptr, %struct.pg_compress_specification, ptr }

; Function Attrs: nounwind uwtable
define dso_local ptr @AllocateCompressor(ptr noundef byval(%struct.pg_compress_specification) align 8 %0, ptr noundef %1, ptr noundef %2) #0 {
  %4 = alloca ptr, align 8
  %5 = alloca ptr, align 8
  %6 = alloca ptr, align 8
  store ptr %1, ptr %4, align 8
  store ptr %2, ptr %5, align 8
  call void @llvm.lifetime.start.p0(i64 8, ptr %6) #7
  %7 = call ptr @pg_malloc0(i64 noundef 80)
  store ptr %7, ptr %6, align 8
  %8 = load ptr, ptr %4, align 8
  %9 = load ptr, ptr %6, align 8
  %10 = getelementptr inbounds nuw %struct.CompressorState, ptr %9, i32 0, i32 3
  store ptr %8, ptr %10, align 8
  %11 = load ptr, ptr %5, align 8
  %12 = load ptr, ptr %6, align 8
  %13 = getelementptr inbounds nuw %struct.CompressorState, ptr %12, i32 0, i32 4
  store ptr %11, ptr %13, align 8
  %14 = getelementptr inbounds nuw %struct.pg_compress_specification, ptr %0, i32 0, i32 0
  %15 = load i32, ptr %14, align 8
  %16 = icmp eq i32 %15, 0
  br i1 %16, label %17, label %19

17:                                               ; preds = %3
  %18 = load ptr, ptr %6, align 8
  call void @InitCompressorNone(ptr noundef %18, ptr noundef byval(%struct.pg_compress_specification) align 8 %0)
  br label %40

19:                                               ; preds = %3
  %20 = getelementptr inbounds nuw %struct.pg_compress_specification, ptr %0, i32 0, i32 0
  %21 = load i32, ptr %20, align 8
  %22 = icmp eq i32 %21, 1
  br i1 %22, label %23, label %25

23:                                               ; preds = %19
  %24 = load ptr, ptr %6, align 8
  call void @InitCompressorGzip(ptr noundef %24, ptr noundef byval(%struct.pg_compress_specification) align 8 %0)
  br label %39

25:                                               ; preds = %19
  %26 = getelementptr inbounds nuw %struct.pg_compress_specification, ptr %0, i32 0, i32 0
  %27 = load i32, ptr %26, align 8
  %28 = icmp eq i32 %27, 2
  br i1 %28, label %29, label %31

29:                                               ; preds = %25
  %30 = load ptr, ptr %6, align 8
  call void @InitCompressorLZ4(ptr noundef %30, ptr noundef byval(%struct.pg_compress_specification) align 8 %0)
  br label %38

31:                                               ; preds = %25
  %32 = getelementptr inbounds nuw %struct.pg_compress_specification, ptr %0, i32 0, i32 0
  %33 = load i32, ptr %32, align 8
  %34 = icmp eq i32 %33, 3
  br i1 %34, label %35, label %37

35:                                               ; preds = %31
  %36 = load ptr, ptr %6, align 8
  call void @InitCompressorZstd(ptr noundef %36, ptr noundef byval(%struct.pg_compress_specification) align 8 %0)
  br label %37

37:                                               ; preds = %35, %31
  br label %38

38:                                               ; preds = %37, %29
  br label %39

39:                                               ; preds = %38, %23
  br label %40

40:                                               ; preds = %39, %17
  %41 = load ptr, ptr %6, align 8
  call void @llvm.lifetime.end.p0(i64 8, ptr %6) #7
  ret ptr %41
}