; Function Attrs: nounwind uwtable
define dso_local ptr @AllocateCompressor(ptr noundef readonly byval(%struct.pg_compress_specification) align 8 captures(none) %0, ptr noundef %1, ptr noundef %2) local_unnamed_addr #0 {
  %4 = tail call ptr @pg_malloc0(i64 noundef 80) #9
  %5 = getelementptr inbounds nuw i8, ptr %4, i64 24
  store ptr %1, ptr %5, align 8
  %6 = getelementptr inbounds nuw i8, ptr %4, i64 32
  store ptr %2, ptr %6, align 8
  %7 = load i32, ptr %0, align 8
  switch i32 %7, label %12 [
    i32 0, label %8
    i32 1, label %9
    i32 2, label %10
    i32 3, label %11
  ]

8:                                                ; preds = %3
  tail call void @InitCompressorNone(ptr noundef nonnull %4, ptr noundef nonnull byval(%struct.pg_compress_specification) align 8 %0) #9
  br label %12

9:                                                ; preds = %3
  tail call void @InitCompressorGzip(ptr noundef nonnull %4, ptr noundef nonnull byval(%struct.pg_compress_specification) align 8 %0) #9
  br label %12

10:                                               ; preds = %3
  tail call void @InitCompressorLZ4(ptr noundef nonnull %4, ptr noundef nonnull byval(%struct.pg_compress_specification) align 8 %0) #9
  br label %12

11:                                               ; preds = %3
  tail call void @InitCompressorZstd(ptr noundef nonnull %4, ptr noundef nonnull byval(%struct.pg_compress_specification) align 8 %0) #9
  br label %12

12:                                               ; preds = %3, %9, %11, %10, %8
  ret ptr %4
}